; Function Attrs: nounwind uwtable
define void @bufferevent_free(ptr noundef initializes((304, 336)) %0) local_unnamed_addr #0 {
  %2 = alloca %union.bufferevent_ctrl_data, align 8
  %3 = getelementptr inbounds nuw i8, ptr %0, i64 448
  %4 = load ptr, ptr %3, align 8
  %.not = icmp eq ptr %4, null
  br i1 %.not, label %.thread.i, label %5

5:                                                ; preds = %1
  %6 = load ptr, ptr getelementptr inbounds nuw (i8, ptr @evthread_lock_fns_, i64 24), align 8
  %7 = tail call i32 %6(i32 noundef 0, ptr noundef nonnull %4) #7
  %.pr = load ptr, ptr %3, align 8
  %.not.i = icmp eq ptr %.pr, null
  br i1 %.not.i, label %.thread.i, label %9

.thread.i:                                        ; preds = %1, %5
  %8 = getelementptr inbounds nuw i8, ptr %0, i64 304
  tail call void @llvm.memset.p0.i64(ptr noundef nonnull align 8 dereferenceable(32) %8, i8 0, i64 32, i1 false)
  br label %bufferevent_setcb.exit.thread

9:                                                ; preds = %5
  %10 = load ptr, ptr getelementptr inbounds nuw (i8, ptr @evthread_lock_fns_, i64 24), align 8
  %11 = tail call i32 %10(i32 noundef 0, ptr noundef nonnull %.pr) #7
  %.pre.i = load ptr, ptr %3, align 8
  %12 = getelementptr inbounds nuw i8, ptr %0, i64 304
  %.not15.i = icmp eq ptr %.pre.i, null
  tail call void @llvm.memset.p0.i64(ptr noundef nonnull align 8 dereferenceable(32) %12, i8 0, i64 32, i1 false)
  br i1 %.not15.i, label %bufferevent_setcb.exit.thread, label %bufferevent_setcb.exit

bufferevent_setcb.exit.thread:                    ; preds = %.thread.i, %9
  call void @llvm.lifetime.start.p0(i64 8, ptr nonnull %2) #7
  store i64 0, ptr %2, align 8
  br label %18

bufferevent_setcb.exit:                           ; preds = %9
  %13 = load ptr, ptr getelementptr inbounds nuw (i8, ptr @evthread_lock_fns_, i64 32), align 8
  %14 = tail call i32 %13(i32 noundef 0, ptr noundef nonnull %.pre.i) #7
  %.pre = load ptr, ptr %3, align 8
  call void @llvm.lifetime.start.p0(i64 8, ptr nonnull %2) #7
  store i64 0, ptr %2, align 8
  %.not.i6 = icmp eq ptr %.pre, null
  br i1 %.not.i6, label %18, label %15

15:                                               ; preds = %bufferevent_setcb.exit
  %16 = load ptr, ptr getelementptr inbounds nuw (i8, ptr @evthread_lock_fns_, i64 24), align 8
  %17 = tail call i32 %16(i32 noundef 0, ptr noundef nonnull %.pre) #7
  br label %18

18:                                               ; preds = %bufferevent_setcb.exit.thread, %15, %bufferevent_setcb.exit
  %19 = getelementptr inbounds nuw i8, ptr %0, i64 8
  %20 = load ptr, ptr %19, align 8
  %21 = getelementptr inbounds nuw i8, ptr %20, i64 64
  %22 = load ptr, ptr %21, align 8
  %.not11.i = icmp eq ptr %22, null
  br i1 %.not11.i, label %25, label %23

23:                                               ; preds = %18
  %24 = call i32 %22(ptr noundef nonnull %0, i32 noundef 3, ptr noundef nonnull %2) #7
  br label %25

25:                                               ; preds = %23, %18
  %26 = load ptr, ptr %3, align 8
  %.not12.i = icmp eq ptr %26, null
  br i1 %.not12.i, label %bufferevent_cancel_all_.exit, label %27

27:                                               ; preds = %25
  %28 = load ptr, ptr getelementptr inbounds nuw (i8, ptr @evthread_lock_fns_, i64 32), align 8
  %29 = call i32 %28(i32 noundef 0, ptr noundef nonnull %26) #7
  br label %bufferevent_cancel_all_.exit

bufferevent_cancel_all_.exit:                     ; preds = %25, %27
  call void @llvm.lifetime.end.p0(i64 8, ptr nonnull %2) #7
  %30 = call i32 @bufferevent_decref_and_unlock_(ptr noundef nonnull %0)
  ret void
}